target datalayout = "e-m:e-p270:32:32-p271:32:32-p272:64:64-i64:64-i128:128-f80:128-n8:16:32:64-S128"
target triple = "x86_64-pc-linux-gnu"

%struct.uv__queue = type { ptr, ptr }
%struct.uv_loop_s = type { ptr, i32, %struct.uv__queue, %union.anon.1, ptr, i32, i64, i32, %struct.uv__queue, %struct.uv__queue, ptr, i32, i32, %struct.uv__queue, %union.pthread_mutex_t, %struct.uv_async_s, %union.pthread_rwlock_t, ptr, %struct.uv__queue, %struct.uv__queue, %struct.uv__queue, %struct.uv__queue, %struct.uv__queue, ptr, %struct.uv__io_s, i32, %struct.anon, i64, i64, [2 x i32], %struct.uv__io_s, %struct.uv_signal_s, i32, %struct.uv__io_s, ptr, i32 }
%union.anon.1 = type { ptr }
%union.pthread_mutex_t = type { %struct.__pthread_mutex_s }
%struct.__pthread_mutex_s = type { i32, i32, i32, i32, i32, i16, i16, %struct.__pthread_internal_list }
%struct.__pthread_internal_list = type { ptr, ptr }
%struct.uv_async_s = type { ptr, ptr, i32, ptr, %struct.uv__queue, %union.anon.2, ptr, i32, ptr, %struct.uv__queue, i32 }
%union.anon.2 = type { [4 x ptr] }
%union.pthread_rwlock_t = type { %struct.__pthread_rwlock_arch_t }
%struct.__pthread_rwlock_arch_t = type { i32, i32, i32, i32, i32, i32, i32, i32, i8, [7 x i8], i64, i32 }
%struct.anon = type { ptr, i32 }
%struct.uv_signal_s = type { ptr, ptr, i32, ptr, %struct.uv__queue, %union.anon.3, ptr, i32, ptr, i32, %struct.anon.4, i32, i32 }
%union.anon.3 = type { [4 x ptr] }
%struct.anon.4 = type { ptr, ptr, ptr, i32 }
%struct.uv__io_s = type { ptr, %struct.uv__queue, %struct.uv__queue, i32, i32, i32 }
%struct.uv_stream_s = type { ptr, ptr, i32, ptr, %struct.uv__queue, %union.anon, ptr, i32, i64, ptr, ptr, ptr, ptr, %struct.uv__io_s, %struct.uv__queue, %struct.uv__queue, ptr, i32, i32, ptr }
%union.anon = type { [4 x ptr] }
%struct.uv_shutdown_s = type { ptr, i32, [6 x ptr], ptr, ptr }

; Function Attrs: nounwind uwtable
define internal void @uv__stream_osx_interrupt_select(ptr noundef %0) #0 {
  %2 = alloca ptr, align 8
  store ptr %0, ptr %2, align 8
  ret void
}

; Function Attrs: nounwind uwtable
define internal void @uv__drain(ptr noundef %0) #0 {
  %2 = alloca ptr, align 8
  %3 = alloca ptr, align 8
  %4 = alloca i32, align 4
  %5 = alloca i32, align 4
  store ptr %0, ptr %2, align 8
  call void @llvm.lifetime.start.p0(i64 8, ptr %3) #8
  call void @llvm.lifetime.start.p0(i64 4, ptr %4) #8
  %6 = load ptr, ptr %2, align 8
  %7 = getelementptr inbounds nuw %struct.uv_stream_s, ptr %6, i32 0, i32 7
  %8 = load i32, ptr %7, align 8
  %9 = and i32 %8, 1
  %10 = icmp ne i32 %9, 0
  br i1 %10, label %18, label %11

11:                                               ; preds = %1
  %12 = load ptr, ptr %2, align 8
  %13 = getelementptr inbounds nuw %struct.uv_stream_s, ptr %12, i32 0, i32 1
  %14 = load ptr, ptr %13, align 8
  %15 = load ptr, ptr %2, align 8
  %16 = getelementptr inbounds nuw %struct.uv_stream_s, ptr %15, i32 0, i32 13
  call void @uv__io_stop(ptr noundef %14, ptr noundef %16, i32 noundef 4)
  %17 = load ptr, ptr %2, align 8
  call void @uv__stream_osx_interrupt_select(ptr noundef %17)
  br label %18

18:                                               ; preds = %11, %1
  %19 = load ptr, ptr %2, align 8
  %20 = getelementptr inbounds nuw %struct.uv_stream_s, ptr %19, i32 0, i32 12
  %21 = load ptr, ptr %20, align 8
  %22 = icmp ne ptr %21, null
  br i1 %22, label %24, label %23

23:                                               ; preds = %18
  store i32 1, ptr %5, align 4
  br label %87

24:                                               ; preds = %18
  %25 = load ptr, ptr %2, align 8
  %26 = getelementptr inbounds nuw %struct.uv_stream_s, ptr %25, i32 0, i32 12
  %27 = load ptr, ptr %26, align 8
  store ptr %27, ptr %3, align 8
  %28 = load ptr, ptr %2, align 8
  %29 = getelementptr inbounds nuw %struct.uv_stream_s, ptr %28, i32 0, i32 7
  %30 = load i32, ptr %29, align 8
  %31 = and i32 %30, 1
  %32 = icmp ne i32 %31, 0
  br i1 %32, label %39, label %33

33:                                               ; preds = %24
  %34 = load ptr, ptr %2, align 8
  %35 = getelementptr inbounds nuw %struct.uv_stream_s, ptr %34, i32 0, i32 7
  %36 = load i32, ptr %35, align 8
  %37 = and i32 %36, 512
  %38 = icmp ne i32 %37, 0
  br i1 %38, label %86, label %39

39:                                               ; preds = %33, %24
  %40 = load ptr, ptr %2, align 8
  %41 = getelementptr inbounds nuw %struct.uv_stream_s, ptr %40, i32 0, i32 12
  store ptr null, ptr %41, align 8
  br label %42

42:                                               ; preds = %39
  %43 = load ptr, ptr %2, align 8
  %44 = getelementptr inbounds nuw %struct.uv_stream_s, ptr %43, i32 0, i32 1
  %45 = load ptr, ptr %44, align 8
  %46 = getelementptr inbounds nuw %struct.uv_loop_s, ptr %45, i32 0, i32 3
  %47 = load i32, ptr %46, align 8
  %48 = add i32 %47, -1
  store i32 %48, ptr %46, align 8
  br label %49

49:                                               ; preds = %42
  br label %50

50:                                               ; preds = %49
  store i32 0, ptr %4, align 4
  %51 = load ptr, ptr %2, align 8
  %52 = getelementptr inbounds nuw %struct.uv_stream_s, ptr %51, i32 0, i32 7
  %53 = load i32, ptr %52, align 8
  %54 = and i32 %53, 1
  %55 = icmp ne i32 %54, 0
  br i1 %55, label %56, label %57

56:                                               ; preds = %50
  store i32 -125, ptr %4, align 4
  br label %74

57:                                               ; preds = %50
  %58 = load ptr, ptr %2, align 8
  %59 = getelementptr inbounds nuw %struct.uv_stream_s, ptr %58, i32 0, i32 13
  %60 = getelementptr inbounds nuw %struct.uv__io_s, ptr %59, i32 0, i32 5
  %61 = load i32, ptr %60, align 8
  %62 = call i32 @shutdown(i32 noundef %61, i32 noundef 1) #8
  %63 = icmp ne i32 %62, 0
  br i1 %63, label %64, label %68

64:                                               ; preds = %57
  %65 = call ptr @__errno_location() #9
  %66 = load i32, ptr %65, align 4
  %67 = sub nsw i32 0, %66
  store i32 %67, ptr %4, align 4
  br label %73

68:                                               ; preds = %57
  %69 = load ptr, ptr %2, align 8
  %70 = getelementptr inbounds nuw %struct.uv_stream_s, ptr %69, i32 0, i32 7
  %71 = load i32, ptr %70, align 8
  %72 = or i32 %71, 512
  store i32 %72, ptr %70, align 8
  br label %73

73:                                               ; preds = %68, %64
  br label %74

74:                                               ; preds = %73, %56
  %75 = load ptr, ptr %3, align 8
  %76 = getelementptr inbounds nuw %struct.uv_shutdown_s, ptr %75, i32 0, i32 4
  %77 = load ptr, ptr %76, align 8
  %78 = icmp ne ptr %77, null
  br i1 %78, label %79, label %85

79:                                               ; preds = %74
  %80 = load ptr, ptr %3, align 8
  %81 = getelementptr inbounds nuw %struct.uv_shutdown_s, ptr %80, i32 0, i32 4
  %82 = load ptr, ptr %81, align 8
  %83 = load ptr, ptr %3, align 8
  %84 = load i32, ptr %4, align 4
  call void %82(ptr noundef %83, i32 noundef %84)
  br label %85

85:                                               ; preds = %79, %74
  br label %86

86:                                               ; preds = %85, %33
  store i32 0, ptr %5, align 4
  br label %87

87:                                               ; preds = %86, %23
  call void @llvm.lifetime.end.p0(i64 4, ptr %4) #8
  call void @llvm.lifetime.end.p0(i64 8, ptr %3) #8
  %88 = load i32, ptr %5, align 4
  switch i32 %88, label %90 [
    i32 0, label %89
    i32 1, label %89
  ]

89:                                               ; preds = %87, %87
  ret void

90:                                               ; preds = %87
  unreachable
}