; Function Attrs: nounwind uwtable
define internal fastcc void @uv__drain(ptr noundef %0) unnamed_addr #0 {
  %2 = getelementptr inbounds nuw i8, ptr %0, i64 88
  %3 = load i32, ptr %2, align 8
  %4 = and i32 %3, 1
  %.not = icmp eq i32 %4, 0
  br i1 %.not, label %5, label %9

5:                                                ; preds = %1
  %6 = getelementptr inbounds nuw i8, ptr %0, i64 8
  %7 = load ptr, ptr %6, align 8
  %8 = getelementptr inbounds nuw i8, ptr %0, i64 136
  tail call void @uv__io_stop(ptr noundef %7, ptr noundef nonnull %8, i32 noundef 4) #12
  br label %9

9:                                                ; preds = %5, %1
  %10 = getelementptr inbounds nuw i8, ptr %0, i64 128
  %11 = load ptr, ptr %10, align 8
  %.not18 = icmp eq ptr %11, null
  br i1 %.not18, label %38, label %12

12:                                               ; preds = %9
  %13 = load i32, ptr %2, align 8
  %14 = and i32 %13, 513
  %or.cond.not = icmp eq i32 %14, 512
  br i1 %or.cond.not, label %38, label %15

15:                                               ; preds = %12
  store ptr null, ptr %10, align 8
  %16 = getelementptr inbounds nuw i8, ptr %0, i64 8
  %17 = load ptr, ptr %16, align 8
  %18 = getelementptr inbounds nuw i8, ptr %17, i64 32
  %19 = load i32, ptr %18, align 8
  %20 = add i32 %19, -1
  store i32 %20, ptr %18, align 8
  %21 = load i32, ptr %2, align 8
  %22 = and i32 %21, 1
  %.not21 = icmp eq i32 %22, 0
  br i1 %.not21, label %23, label %34

23:                                               ; preds = %15
  %24 = getelementptr inbounds nuw i8, ptr %0, i64 184
  %25 = load i32, ptr %24, align 8
  %26 = tail call i32 @shutdown(i32 noundef %25, i32 noundef 1) #12
  %.not22 = icmp eq i32 %26, 0
  br i1 %.not22, label %31, label %27

27:                                               ; preds = %23
  %28 = tail call ptr @__errno_location() #13
  %29 = load i32, ptr %28, align 4
  %30 = sub nsw i32 0, %29
  br label %34

31:                                               ; preds = %23
  %32 = load i32, ptr %2, align 8
  %33 = or i32 %32, 512
  store i32 %33, ptr %2, align 8
  br label %34

34:                                               ; preds = %15, %27, %31
  %.0 = phi i32 [ %30, %27 ], [ 0, %31 ], [ -125, %15 ]
  %35 = getelementptr inbounds nuw i8, ptr %11, i64 72
  %36 = load ptr, ptr %35, align 8
  %.not23 = icmp eq ptr %36, null
  br i1 %.not23, label %38, label %37

37:                                               ; preds = %34
  tail call void %36(ptr noundef nonnull %11, i32 noundef %.0) #12
  br label %38

38:                                               ; preds = %37, %34, %12, %9
  ret void
}